; ModuleID = '39/1684.c'
source_filename = "39/1684.c"
target datalayout = "e-m:e-p270:32:32-p271:32:32-p272:64:64-i64:64-f80:128-n8:16:32:64-S128"
target triple = "x86_64-pc-linux-gnu"

%struct.st = type { [25 x i8], [2 x i32], i8, i8, i32 }

@.str = private unnamed_addr constant [3 x i8] c"%d\00", align 1
@.str.1 = private unnamed_addr constant [15 x i8] c"%s%d%d %c %c%d\00", align 1
@.str.2 = private unnamed_addr constant [9 x i8] c"%s\0A%d\0A%d\00", align 1

; Function Attrs: noinline nounwind uwtable
define dso_local void @main() #0 {
  %1 = alloca [200 x %struct.st], align 16
  %2 = alloca i32, align 4
  %3 = alloca i32, align 4
  %4 = alloca i32, align 4
  %5 = alloca i32, align 4
  %6 = alloca i32, align 4
  %7 = alloca [200 x i32], align 16
  store i32 0, i32* %4, align 4
  store i32 0, i32* %5, align 4
  store i32 0, i32* %6, align 4
  %8 = bitcast [200 x i32]* %7 to i8*
  call void @llvm.memset.p0i8.i64(i8* align 16 %8, i8 0, i64 800, i1 false)
  %9 = call i32 (i8*, ...) @__isoc99_scanf(i8* getelementptr inbounds ([3 x i8], [3 x i8]* @.str, i64 0, i64 0), i32* %2)
  store i32 0, i32* %3, align 4
  br label %10

10:                                               ; preds = %43, %0
  %11 = load i32, i32* %3, align 4
  %12 = load i32, i32* %2, align 4
  %13 = icmp slt i32 %11, %12
  br i1 %13, label %14, label %46

14:                                               ; preds = %10
  %15 = load i32, i32* %3, align 4
  %16 = sext i32 %15 to i64
  %17 = getelementptr inbounds [200 x %struct.st], [200 x %struct.st]* %1, i64 0, i64 %16
  %18 = getelementptr inbounds %struct.st, %struct.st* %17, i32 0, i32 0
  %19 = getelementptr inbounds [25 x i8], [25 x i8]* %18, i64 0, i64 0
  %20 = load i32, i32* %3, align 4
  %21 = sext i32 %20 to i64
  %22 = getelementptr inbounds [200 x %struct.st], [200 x %struct.st]* %1, i64 0, i64 %21
  %23 = getelementptr inbounds %struct.st, %struct.st* %22, i32 0, i32 1
  %24 = getelementptr inbounds [2 x i32], [2 x i32]* %23, i64 0, i64 0
  %25 = load i32, i32* %3, align 4
  %26 = sext i32 %25 to i64
  %27 = getelementptr inbounds [200 x %struct.st], [200 x %struct.st]* %1, i64 0, i64 %26
  %28 = getelementptr inbounds %struct.st, %struct.st* %27, i32 0, i32 1
  %29 = getelementptr inbounds [2 x i32], [2 x i32]* %28, i64 0, i64 1
  %30 = load i32, i32* %3, align 4
  %31 = sext i32 %30 to i64
  %32 = getelementptr inbounds [200 x %struct.st], [200 x %struct.st]* %1, i64 0, i64 %31
  %33 = getelementptr inbounds %struct.st, %struct.st* %32, i32 0, i32 2
  %34 = load i32, i32* %3, align 4
  %35 = sext i32 %34 to i64
  %36 = getelementptr inbounds [200 x %struct.st], [200 x %struct.st]* %1, i64 0, i64 %35
  %37 = getelementptr inbounds %struct.st, %struct.st* %36, i32 0, i32 3
  %38 = load i32, i32* %3, align 4
  %39 = sext i32 %38 to i64
  %40 = getelementptr inbounds [200 x %struct.st], [200 x %struct.st]* %1, i64 0, i64 %39
  %41 = getelementptr inbounds %struct.st, %struct.st* %40, i32 0, i32 4
  %42 = call i32 (i8*, ...) @__isoc99_scanf(i8* getelementptr inbounds ([15 x i8], [15 x i8]* @.str.1, i64 0, i64 0), i8* %19, i32* %24, i32* %29, i8* %33, i8* %37, i32* %41)
  br label %43

43:                                               ; preds = %14
  %44 = load i32, i32* %3, align 4
  %45 = add nsw i32 %44, 1
  store i32 %45, i32* %3, align 4
  br label %10

46:                                               ; preds = %10
  store i32 0, i32* %3, align 4
  br label %47

47:                                               ; preds = %168, %46
  %48 = load i32, i32* %3, align 4
  %49 = load i32, i32* %2, align 4
  %50 = icmp slt i32 %48, %49
  br i1 %50, label %51, label %171

51:                                               ; preds = %47
  %52 = load i32, i32* %3, align 4
  %53 = sext i32 %52 to i64
  %54 = getelementptr inbounds [200 x %struct.st], [200 x %struct.st]* %1, i64 0, i64 %53
  %55 = getelementptr inbounds %struct.st, %struct.st* %54, i32 0, i32 1
  %56 = getelementptr inbounds [2 x i32], [2 x i32]* %55, i64 0, i64 0
  %57 = load i32, i32* %56, align 4
  %58 = icmp sgt i32 %57, 80
  br i1 %58, label %59, label %75

59:                                               ; preds = %51
  %60 = load i32, i32* %3, align 4
  %61 = sext i32 %60 to i64
  %62 = getelementptr inbounds [200 x %struct.st], [200 x %struct.st]* %1, i64 0, i64 %61
  %63 = getelementptr inbounds %struct.st, %struct.st* %62, i32 0, i32 4
  %64 = load i32, i32* %63, align 4
  %65 = icmp sgt i32 %64, 0
  br i1 %65, label %66, label %75

66:                                               ; preds = %59
  %67 = load i32, i32* %3, align 4
  %68 = sext i32 %67 to i64
  %69 = getelementptr inbounds [200 x i32], [200 x i32]* %7, i64 0, i64 %68
  %70 = load i32, i32* %69, align 4
  %71 = add nsw i32 %70, 8000
  %72 = load i32, i32* %3, align 4
  %73 = sext i32 %72 to i64
  %74 = getelementptr inbounds [200 x i32], [200 x i32]* %7, i64 0, i64 %73
  store i32 %71, i32* %74, align 4
  br label %75

75:                                               ; preds = %66, %59, %51
  %76 = load i32, i32* %3, align 4
  %77 = sext i32 %76 to i64
  %78 = getelementptr inbounds [200 x %struct.st], [200 x %struct.st]* %1, i64 0, i64 %77
  %79 = getelementptr inbounds %struct.st, %struct.st* %78, i32 0, i32 1
  %80 = getelementptr inbounds [2 x i32], [2 x i32]* %79, i64 0, i64 0
  %81 = load i32, i32* %80, align 4
  %82 = icmp sgt i32 %81, 85
  br i1 %82, label %83, label %100

83:                                               ; preds = %75
  %84 = load i32, i32* %3, align 4
  %85 = sext i32 %84 to i64
  %86 = getelementptr inbounds [200 x %struct.st], [200 x %struct.st]* %1, i64 0, i64 %85
  %87 = getelementptr inbounds %struct.st, %struct.st* %86, i32 0, i32 1
  %88 = getelementptr inbounds [2 x i32], [2 x i32]* %87, i64 0, i64 1
  %89 = load i32, i32* %88, align 4
  %90 = icmp sgt i32 %89, 80
  br i1 %90, label %91, label %100

91:                                               ; preds = %83
  %92 = load i32, i32* %3, align 4
  %93 = sext i32 %92 to i64
  %94 = getelementptr inbounds [200 x i32], [200 x i32]* %7, i64 0, i64 %93
  %95 = load i32, i32* %94, align 4
  %96 = add nsw i32 %95, 4000
  %97 = load i32, i32* %3, align 4
  %98 = sext i32 %97 to i64
  %99 = getelementptr inbounds [200 x i32], [200 x i32]* %7, i64 0, i64 %98
  store i32 %96, i32* %99, align 4
  br label %100

100:                                              ; preds = %91, %83, %75
  %101 = load i32, i32* %3, align 4
  %102 = sext i32 %101 to i64
  %103 = getelementptr inbounds [200 x %struct.st], [200 x %struct.st]* %1, i64 0, i64 %102
  %104 = getelementptr inbounds %struct.st, %struct.st* %103, i32 0, i32 1
  %105 = getelementptr inbounds [2 x i32], [2 x i32]* %104, i64 0, i64 0
  %106 = load i32, i32* %105, align 4
  %107 = icmp sgt i32 %106, 90
  br i1 %107, label %108, label %117

108:                                              ; preds = %100
  %109 = load i32, i32* %3, align 4
  %110 = sext i32 %109 to i64
  %111 = getelementptr inbounds [200 x i32], [200 x i32]* %7, i64 0, i64 %110
  %112 = load i32, i32* %111, align 4
  %113 = add nsw i32 %112, 2000
  %114 = load i32, i32* %3, align 4
  %115 = sext i32 %114 to i64
  %116 = getelementptr inbounds [200 x i32], [200 x i32]* %7, i64 0, i64 %115
  store i32 %113, i32* %116, align 4
  br label %117

117:                                              ; preds = %108, %100
  %118 = load i32, i32* %3, align 4
  %119 = sext i32 %118 to i64
  %120 = getelementptr inbounds [200 x %struct.st], [200 x %struct.st]* %1, i64 0, i64 %119
  %121 = getelementptr inbounds %struct.st, %struct.st* %120, i32 0, i32 1
  %122 = getelementptr inbounds [2 x i32], [2 x i32]* %121, i64 0, i64 0
  %123 = load i32, i32* %122, align 4
  %124 = icmp sgt i32 %123, 85
  br i1 %124, label %125, label %142

125:                                              ; preds = %117
  %126 = load i32, i32* %3, align 4
  %127 = sext i32 %126 to i64
  %128 = getelementptr inbounds [200 x %struct.st], [200 x %struct.st]* %1, i64 0, i64 %127
  %129 = getelementptr inbounds %struct.st, %struct.st* %128, i32 0, i32 3
  %130 = load i8, i8* %129, align 1
  %131 = sext i8 %130 to i32
  %132 = icmp eq i32 %131, 89
  br i1 %132, label %133, label %142

133:                                              ; preds = %125
  %134 = load i32, i32* %3, align 4
  %135 = sext i32 %134 to i64
  %136 = getelementptr inbounds [200 x i32], [200 x i32]* %7, i64 0, i64 %135
  %137 = load i32, i32* %136, align 4
  %138 = add nsw i32 %137, 1000
  %139 = load i32, i32* %3, align 4
  %140 = sext i32 %139 to i64
  %141 = getelementptr inbounds [200 x i32], [200 x i32]* %7, i64 0, i64 %140
  store i32 %138, i32* %141, align 4
  br label %142

142:                                              ; preds = %133, %125, %117
  %143 = load i32, i32* %3, align 4
  %144 = sext i32 %143 to i64
  %145 = getelementptr inbounds [200 x %struct.st], [200 x %struct.st]* %1, i64 0, i64 %144
  %146 = getelementptr inbounds %struct.st, %struct.st* %145, i32 0, i32 1
  %147 = getelementptr inbounds [2 x i32], [2 x i32]* %146, i64 0, i64 1
  %148 = load i32, i32* %147, align 4
  %149 = icmp sgt i32 %148, 80
  br i1 %149, label %150, label %167

150:                                              ; preds = %142
  %151 = load i32, i32* %3, align 4
  %152 = sext i32 %151 to i64
  %153 = getelementptr inbounds [200 x %struct.st], [200 x %struct.st]* %1, i64 0, i64 %152
  %154 = getelementptr inbounds %struct.st, %struct.st* %153, i32 0, i32 2
  %155 = load i8, i8* %154, align 4
  %156 = sext i8 %155 to i32
  %157 = icmp eq i32 %156, 89
  br i1 %157, label %158, label %167

158:                                              ; preds = %150
  %159 = load i32, i32* %3, align 4
  %160 = sext i32 %159 to i64
  %161 = getelementptr inbounds [200 x i32], [200 x i32]* %7, i64 0, i64 %160
  %162 = load i32, i32* %161, align 4
  %163 = add nsw i32 %162, 850
  %164 = load i32, i32* %3, align 4
  %165 = sext i32 %164 to i64
  %166 = getelementptr inbounds [200 x i32], [200 x i32]* %7, i64 0, i64 %165
  store i32 %163, i32* %166, align 4
  br label %167

167:                                              ; preds = %158, %150, %142
  br label %168

168:                                              ; preds = %167
  %169 = load i32, i32* %3, align 4
  %170 = add nsw i32 %169, 1
  store i32 %170, i32* %3, align 4
  br label %47

171:                                              ; preds = %47
  store i32 0, i32* %3, align 4
  br label %172

172:                                              ; preds = %210, %171
  %173 = load i32, i32* %3, align 4
  %174 = load i32, i32* %2, align 4
  %175 = icmp slt i32 %173, %174
  br i1 %175, label %176, label %213

176:                                              ; preds = %172
  %177 = load i32, i32* %3, align 4
  %178 = sext i32 %177 to i64
  %179 = getelementptr inbounds [200 x i32], [200 x i32]* %7, i64 0, i64 %178
  %180 = load i32, i32* %179, align 4
  %181 = load i32, i32* %5, align 4
  %182 = icmp sgt i32 %180, %181
  br i1 %182, label %183, label %185

183:                                              ; preds = %176
  %184 = load i32, i32* %3, align 4
  br label %187

185:                                              ; preds = %176
  %186 = load i32, i32* %4, align 4
  br label %187

187:                                              ; preds = %185, %183
  %188 = phi i32 [ %184, %183 ], [ %186, %185 ]
  store i32 %188, i32* %4, align 4
  %189 = load i32, i32* %3, align 4
  %190 = sext i32 %189 to i64
  %191 = getelementptr inbounds [200 x i32], [200 x i32]* %7, i64 0, i64 %190
  %192 = load i32, i32* %191, align 4
  %193 = load i32, i32* %5, align 4
  %194 = icmp sgt i32 %192, %193
  br i1 %194, label %195, label %200

195:                                              ; preds = %187
  %196 = load i32, i32* %3, align 4
  %197 = sext i32 %196 to i64
  %198 = getelementptr inbounds [200 x i32], [200 x i32]* %7, i64 0, i64 %197
  %199 = load i32, i32* %198, align 4
  br label %202

200:                                              ; preds = %187
  %201 = load i32, i32* %5, align 4
  br label %202

202:                                              ; preds = %200, %195
  %203 = phi i32 [ %199, %195 ], [ %201, %200 ]
  store i32 %203, i32* %5, align 4
  %204 = load i32, i32* %6, align 4
  %205 = load i32, i32* %3, align 4
  %206 = sext i32 %205 to i64
  %207 = getelementptr inbounds [200 x i32], [200 x i32]* %7, i64 0, i64 %206
  %208 = load i32, i32* %207, align 4
  %209 = add nsw i32 %204, %208
  store i32 %209, i32* %6, align 4
  br label %210

210:                                              ; preds = %202
  %211 = load i32, i32* %3, align 4
  %212 = add nsw i32 %211, 1
  store i32 %212, i32* %3, align 4
  br label %172

213:                                              ; preds = %172
  %214 = load i32, i32* %4, align 4
  %215 = sext i32 %214 to i64
  %216 = getelementptr inbounds [200 x %struct.st], [200 x %struct.st]* %1, i64 0, i64 %215
  %217 = getelementptr inbounds %struct.st, %struct.st* %216, i32 0, i32 0
  %218 = getelementptr inbounds [25 x i8], [25 x i8]* %217, i64 0, i64 0
  %219 = load i32, i32* %4, align 4
  %220 = sext i32 %219 to i64
  %221 = getelementptr inbounds [200 x i32], [200 x i32]* %7, i64 0, i64 %220
  %222 = load i32, i32* %221, align 4
  %223 = load i32, i32* %6, align 4
  %224 = call i32 (i8*, ...) @printf(i8* getelementptr inbounds ([9 x i8], [9 x i8]* @.str.2, i64 0, i64 0), i8* %218, i32 %222, i32 %223)
  ret void
}

; Function Attrs: argmemonly nounwind willreturn
declare void @llvm.memset.p0i8.i64(i8* nocapture writeonly, i8, i64, i1 immarg) #1

declare dso_local i32 @__isoc99_scanf(i8*, ...) #2

declare dso_local i32 @printf(i8*, ...) #2


!llvm.module.flags = !{!0}
!llvm.ident = !{!1}

!0 = !{i32 1, !"wchar_size", i32 4}
!1 = !{!"clang version 10.0.0-4ubuntu1 "}
